; ModuleID = '51/94.c'
source_filename = "51/94.c"
target datalayout = "e-m:e-p270:32:32-p271:32:32-p272:64:64-i64:64-f80:128-n8:16:32:64-S128"
target triple = "x86_64-pc-linux-gnu"

@.str = private unnamed_addr constant [3 x i8] c"%d\00", align 1
@.str.1 = private unnamed_addr constant [3 x i8] c"%s\00", align 1
@.str.2 = private unnamed_addr constant [3 x i8] c"NO\00", align 1
@.str.3 = private unnamed_addr constant [4 x i8] c"%d\0A\00", align 1
@.str.4 = private unnamed_addr constant [4 x i8] c"%s\0A\00", align 1

; Function Attrs: noinline nounwind uwtable
define dso_local i32 @main() #0 {
  %1 = alloca i32, align 4
  %2 = alloca [600 x i8], align 16
  %3 = alloca [600 x [6 x i8]], align 16
  %4 = alloca i32, align 4
  %5 = alloca i32, align 4
  %6 = alloca i32, align 4
  %7 = alloca i32, align 4
  %8 = alloca i32, align 4
  %9 = alloca i32, align 4
  %10 = alloca i32, align 4
  %11 = alloca [600 x i32], align 16
  %12 = alloca i32, align 4
  store i32 0, i32* %1, align 4
  %13 = bitcast [600 x [6 x i8]]* %3 to i8*
  call void @llvm.memset.p0i8.i64(i8* align 16 %13, i8 0, i64 3600, i1 false)
  %14 = bitcast [600 x i32]* %11 to i8*
  call void @llvm.memset.p0i8.i64(i8* align 16 %14, i8 0, i64 2400, i1 false)
  %15 = call i32 (i8*, ...) @__isoc99_scanf(i8* getelementptr inbounds ([3 x i8], [3 x i8]* @.str, i64 0, i64 0), i32* %4)
  %16 = getelementptr inbounds [600 x i8], [600 x i8]* %2, i64 0, i64 0
  %17 = call i32 (i8*, ...) @__isoc99_scanf(i8* getelementptr inbounds ([3 x i8], [3 x i8]* @.str.1, i64 0, i64 0), i8* %16)
  %18 = getelementptr inbounds [600 x i8], [600 x i8]* %2, i64 0, i64 0
  %19 = call i64 @strlen(i8* %18) #4
  %20 = trunc i64 %19 to i32
  store i32 %20, i32* %8, align 4
  store i32 0, i32* %7, align 4
  br label %21

21:                                               ; preds = %51, %0
  %22 = load i32, i32* %7, align 4
  %23 = load i32, i32* %8, align 4
  %24 = load i32, i32* %4, align 4
  %25 = sub nsw i32 %23, %24
  %26 = icmp sle i32 %22, %25
  br i1 %26, label %27, label %54

27:                                               ; preds = %21
  store i32 0, i32* %9, align 4
  %28 = load i32, i32* %7, align 4
  store i32 %28, i32* %5, align 4
  br label %29

29:                                               ; preds = %47, %27
  %30 = load i32, i32* %5, align 4
  %31 = load i32, i32* %7, align 4
  %32 = load i32, i32* %4, align 4
  %33 = add nsw i32 %31, %32
  %34 = icmp slt i32 %30, %33
  br i1 %34, label %35, label %50

35:                                               ; preds = %29
  %36 = load i32, i32* %5, align 4
  %37 = sext i32 %36 to i64
  %38 = getelementptr inbounds [600 x i8], [600 x i8]* %2, i64 0, i64 %37
  %39 = load i8, i8* %38, align 1
  %40 = load i32, i32* %7, align 4
  %41 = sext i32 %40 to i64
  %42 = getelementptr inbounds [600 x [6 x i8]], [600 x [6 x i8]]* %3, i64 0, i64 %41
  %43 = load i32, i32* %9, align 4
  %44 = add nsw i32 %43, 1
  store i32 %44, i32* %9, align 4
  %45 = sext i32 %43 to i64
  %46 = getelementptr inbounds [6 x i8], [6 x i8]* %42, i64 0, i64 %45
  store i8 %39, i8* %46, align 1
  br label %47

47:                                               ; preds = %35
  %48 = load i32, i32* %5, align 4
  %49 = add nsw i32 %48, 1
  store i32 %49, i32* %5, align 4
  br label %29

50:                                               ; preds = %29
  br label %51

51:                                               ; preds = %50
  %52 = load i32, i32* %7, align 4
  %53 = add nsw i32 %52, 1
  store i32 %53, i32* %7, align 4
  br label %21

54:                                               ; preds = %21
  store i32 0, i32* %5, align 4
  br label %55

55:                                               ; preds = %88, %54
  %56 = load i32, i32* %5, align 4
  %57 = load i32, i32* %7, align 4
  %58 = icmp slt i32 %56, %57
  br i1 %58, label %59, label %91

59:                                               ; preds = %55
  %60 = load i32, i32* %5, align 4
  %61 = add nsw i32 %60, 1
  store i32 %61, i32* %6, align 4
  br label %62

62:                                               ; preds = %84, %59
  %63 = load i32, i32* %6, align 4
  %64 = load i32, i32* %7, align 4
  %65 = icmp sle i32 %63, %64
  br i1 %65, label %66, label %87

66:                                               ; preds = %62
  %67 = load i32, i32* %5, align 4
  %68 = sext i32 %67 to i64
  %69 = getelementptr inbounds [600 x [6 x i8]], [600 x [6 x i8]]* %3, i64 0, i64 %68
  %70 = getelementptr inbounds [6 x i8], [6 x i8]* %69, i64 0, i64 0
  %71 = load i32, i32* %6, align 4
  %72 = sext i32 %71 to i64
  %73 = getelementptr inbounds [600 x [6 x i8]], [600 x [6 x i8]]* %3, i64 0, i64 %72
  %74 = getelementptr inbounds [6 x i8], [6 x i8]* %73, i64 0, i64 0
  %75 = call i32 @strcmp(i8* %70, i8* %74) #4
  %76 = icmp eq i32 %75, 0
  br i1 %76, label %77, label %83

77:                                               ; preds = %66
  %78 = load i32, i32* %5, align 4
  %79 = sext i32 %78 to i64
  %80 = getelementptr inbounds [600 x i32], [600 x i32]* %11, i64 0, i64 %79
  %81 = load i32, i32* %80, align 4
  %82 = add nsw i32 %81, 1
  store i32 %82, i32* %80, align 4
  br label %83

83:                                               ; preds = %77, %66
  br label %84

84:                                               ; preds = %83
  %85 = load i32, i32* %6, align 4
  %86 = add nsw i32 %85, 1
  store i32 %86, i32* %6, align 4
  br label %62

87:                                               ; preds = %62
  br label %88

88:                                               ; preds = %87
  %89 = load i32, i32* %5, align 4
  %90 = add nsw i32 %89, 1
  store i32 %90, i32* %5, align 4
  br label %55

91:                                               ; preds = %55
  %92 = load i32, i32* %5, align 4
  %93 = sext i32 %92 to i64
  %94 = getelementptr inbounds [600 x i32], [600 x i32]* %11, i64 0, i64 %93
  %95 = load i32, i32* %94, align 4
  %96 = add nsw i32 %95, 1
  store i32 %96, i32* %12, align 4
  store i32 0, i32* %5, align 4
  br label %97

97:                                               ; preds = %118, %91
  %98 = load i32, i32* %5, align 4
  %99 = load i32, i32* %8, align 4
  %100 = load i32, i32* %4, align 4
  %101 = sub nsw i32 %99, %100
  %102 = icmp sle i32 %98, %101
  br i1 %102, label %103, label %121

103:                                              ; preds = %97
  %104 = load i32, i32* %5, align 4
  %105 = sext i32 %104 to i64
  %106 = getelementptr inbounds [600 x i32], [600 x i32]* %11, i64 0, i64 %105
  %107 = load i32, i32* %106, align 4
  %108 = load i32, i32* %12, align 4
  %109 = sub nsw i32 %108, 1
  %110 = icmp sgt i32 %107, %109
  br i1 %110, label %111, label %117

111:                                              ; preds = %103
  %112 = load i32, i32* %5, align 4
  %113 = sext i32 %112 to i64
  %114 = getelementptr inbounds [600 x i32], [600 x i32]* %11, i64 0, i64 %113
  %115 = load i32, i32* %114, align 4
  %116 = add nsw i32 %115, 1
  store i32 %116, i32* %12, align 4
  br label %117

117:                                              ; preds = %111, %103
  br label %118

118:                                              ; preds = %117
  %119 = load i32, i32* %5, align 4
  %120 = add nsw i32 %119, 1
  store i32 %120, i32* %5, align 4
  br label %97

121:                                              ; preds = %97
  %122 = load i32, i32* %12, align 4
  %123 = icmp eq i32 %122, 1
  br i1 %123, label %124, label %126

124:                                              ; preds = %121
  %125 = call i32 (i8*, ...) @printf(i8* getelementptr inbounds ([3 x i8], [3 x i8]* @.str.2, i64 0, i64 0))
  br label %154

126:                                              ; preds = %121
  %127 = load i32, i32* %12, align 4
  %128 = call i32 (i8*, ...) @printf(i8* getelementptr inbounds ([4 x i8], [4 x i8]* @.str.3, i64 0, i64 0), i32 %127)
  store i32 0, i32* %5, align 4
  br label %129

129:                                              ; preds = %150, %126
  %130 = load i32, i32* %5, align 4
  %131 = load i32, i32* %8, align 4
  %132 = load i32, i32* %4, align 4
  %133 = sub nsw i32 %131, %132
  %134 = icmp sle i32 %130, %133
  br i1 %134, label %135, label %153

135:                                              ; preds = %129
  %136 = load i32, i32* %12, align 4
  %137 = load i32, i32* %5, align 4
  %138 = sext i32 %137 to i64
  %139 = getelementptr inbounds [600 x i32], [600 x i32]* %11, i64 0, i64 %138
  %140 = load i32, i32* %139, align 4
  %141 = add nsw i32 %140, 1
  %142 = icmp eq i32 %136, %141
  br i1 %142, label %143, label %149

143:                                              ; preds = %135
  %144 = load i32, i32* %5, align 4
  %145 = sext i32 %144 to i64
  %146 = getelementptr inbounds [600 x [6 x i8]], [600 x [6 x i8]]* %3, i64 0, i64 %145
  %147 = getelementptr inbounds [6 x i8], [6 x i8]* %146, i64 0, i64 0
  %148 = call i32 (i8*, ...) @printf(i8* getelementptr inbounds ([4 x i8], [4 x i8]* @.str.4, i64 0, i64 0), i8* %147)
  br label %149

149:                                              ; preds = %143, %135
  br label %150

150:                                              ; preds = %149
  %151 = load i32, i32* %5, align 4
  %152 = add nsw i32 %151, 1
  store i32 %152, i32* %5, align 4
  br label %129

153:                                              ; preds = %129
  br label %154

154:                                              ; preds = %153, %124
  %155 = call i32 (i8*, ...) @__isoc99_scanf(i8* getelementptr inbounds ([3 x i8], [3 x i8]* @.str, i64 0, i64 0), i32* %5)
  ret i32 0
}

; Function Attrs: argmemonly nounwind willreturn
declare void @llvm.memset.p0i8.i64(i8* nocapture writeonly, i8, i64, i1 immarg) #1

declare dso_local i32 @__isoc99_scanf(i8*, ...) #2

; Function Attrs: nounwind readonly
declare dso_local i64 @strlen(i8*) #3

; Function Attrs: nounwind readonly
declare dso_local i32 @strcmp(i8*, i8*) #3

declare dso_local i32 @printf(i8*, ...) #2


!llvm.module.flags = !{!0}
!llvm.ident = !{!1}

!0 = !{i32 1, !"wchar_size", i32 4}
!1 = !{!"clang version 10.0.0-4ubuntu1 "}
